; Function Attrs: nounwind sspstrong uwtable
define internal noundef i64 @ossl_ocspreq_add_certid(i64 noundef returned %0, i64 noundef %1) #0 {
  %3 = tail call ptr @rb_check_typeddata(i64 noundef %0, ptr noundef nonnull @ossl_ocsp_request_type) #5
  %.not = icmp eq ptr %3, null
  br i1 %.not, label %4, label %6

4:                                                ; preds = %2
  %5 = load i64, ptr @rb_eRuntimeError, align 8, !tbaa !6
  tail call void (i64, ptr, ...) @ossl_raise(i64 noundef %5, ptr noundef nonnull @.str.70) #6
  unreachable

6:                                                ; preds = %2
  %7 = tail call ptr @rb_check_typeddata(i64 noundef %1, ptr noundef nonnull @ossl_ocsp_certid_type) #5
  %.not10 = icmp eq ptr %7, null
  br i1 %.not10, label %8, label %10

8:                                                ; preds = %6
  %9 = load i64, ptr @rb_eRuntimeError, align 8, !tbaa !6
  tail call void (i64, ptr, ...) @ossl_raise(i64 noundef %9, ptr noundef nonnull @.str.77) #6
  unreachable

10:                                               ; preds = %6
  %11 = tail call ptr @OCSP_CERTID_dup(ptr noundef nonnull %7) #5
  %.not11 = icmp eq ptr %11, null
  br i1 %.not11, label %12, label %14

12:                                               ; preds = %10
  %13 = load i64, ptr @eOCSPError, align 8, !tbaa !6
  tail call void (i64, ptr, ...) @ossl_raise(i64 noundef %13, ptr noundef nonnull @.str.78) #6
  unreachable

14:                                               ; preds = %10
  %15 = tail call ptr @OCSP_request_add0_id(ptr noundef nonnull %3, ptr noundef nonnull %11) #5
  %.not12 = icmp eq ptr %15, null
  br i1 %.not12, label %16, label %18

16:                                               ; preds = %14
  tail call void @OCSP_CERTID_free(ptr noundef nonnull %11) #5
  %17 = load i64, ptr @eOCSPError, align 8, !tbaa !6
  tail call void (i64, ptr, ...) @ossl_raise(i64 noundef %17, ptr noundef nonnull @.str.79) #6
  unreachable

18:                                               ; preds = %14
  ret i64 %0
}